target datalayout = "e-m:e-p270:32:32-p271:32:32-p272:64:64-i64:64-i128:128-f80:128-n8:16:32:64-S128"
target triple = "x86_64-pc-linux-gnu"

%struct.commit = type { %struct.object, i64, ptr, ptr, i32 }
%struct.object = type { i32, %struct.object_id }
%struct.object_id = type { [32 x i8], i32 }

; Function Attrs: nounwind uwtable
define dso_local ptr @repo_get_commit_tree(ptr noundef %0, ptr noundef %1) #0 {
  %3 = alloca ptr, align 8
  %4 = alloca ptr, align 8
  %5 = alloca ptr, align 8
  store ptr %0, ptr %4, align 8, !tbaa !4
  store ptr %1, ptr %5, align 8, !tbaa !17
  %6 = load ptr, ptr %5, align 8, !tbaa !17
  %7 = getelementptr inbounds nuw %struct.commit, ptr %6, i32 0, i32 3
  %8 = load ptr, ptr %7, align 8, !tbaa !93
  %9 = icmp ne ptr %8, null
  br i1 %9, label %16, label %10

10:                                               ; preds = %2
  %11 = load ptr, ptr %5, align 8, !tbaa !17
  %12 = getelementptr inbounds nuw %struct.commit, ptr %11, i32 0, i32 0
  %13 = load i32, ptr %12, align 8
  %14 = and i32 %13, 1
  %15 = icmp ne i32 %14, 0
  br i1 %15, label %20, label %16

16:                                               ; preds = %10, %2
  %17 = load ptr, ptr %5, align 8, !tbaa !17
  %18 = getelementptr inbounds nuw %struct.commit, ptr %17, i32 0, i32 3
  %19 = load ptr, ptr %18, align 8, !tbaa !93
  store ptr %19, ptr %3, align 8
  br label %29

20:                                               ; preds = %10
  %21 = load ptr, ptr %5, align 8, !tbaa !17
  %22 = call i32 @commit_graph_position(ptr noundef %21)
  %23 = icmp ne i32 %22, -1
  br i1 %23, label %24, label %28

24:                                               ; preds = %20
  %25 = load ptr, ptr %4, align 8, !tbaa !4
  %26 = load ptr, ptr %5, align 8, !tbaa !17
  %27 = call ptr @get_commit_tree_in_graph(ptr noundef %25, ptr noundef %26)
  store ptr %27, ptr %3, align 8
  br label %29

28:                                               ; preds = %20
  store ptr null, ptr %3, align 8
  br label %29

29:                                               ; preds = %28, %24, %16
  %30 = load ptr, ptr %3, align 8
  ret ptr %30
}