; Function Attrs: nounwind uwtable
define dso_local ptr @repo_get_commit_tree(ptr noundef %0, ptr noundef %1) local_unnamed_addr #0 {
  %3 = getelementptr inbounds nuw i8, ptr %1, i64 56
  %4 = load ptr, ptr %3, align 8, !tbaa !83
  %.not = icmp eq ptr %4, null
  br i1 %.not, label %5, label %12

5:                                                ; preds = %2
  %6 = load i32, ptr %1, align 8
  %7 = and i32 %6, 1
  %.not7 = icmp eq i32 %7, 0
  br i1 %.not7, label %12, label %8

8:                                                ; preds = %5
  %9 = tail call i32 @commit_graph_position(ptr noundef nonnull %1) #24
  %.not8 = icmp eq i32 %9, -1
  br i1 %.not8, label %12, label %10

10:                                               ; preds = %8
  %11 = tail call ptr @get_commit_tree_in_graph(ptr noundef %0, ptr noundef nonnull %1) #24
  br label %12

12:                                               ; preds = %2, %5, %8, %10
  %.0 = phi ptr [ %11, %10 ], [ null, %8 ], [ null, %5 ], [ %4, %2 ]
  ret ptr %.0
}